target datalayout = "e-m:e-p270:32:32-p271:32:32-p272:64:64-i64:64-i128:128-f80:128-n8:16:32:64-S128"
target triple = "x86_64-pc-linux-gnu"

%struct.archive_write = type { %struct.archive, i32, i64, i64, ptr, i64, ptr, ptr, ptr, ptr, ptr, i32, i32, ptr, ptr, ptr, ptr, ptr, ptr, ptr, ptr, ptr, ptr, ptr, ptr, ptr, ptr }
%struct.archive = type { i32, i32, ptr, i32, ptr, i32, i32, ptr, %struct.archive_string, ptr, i32, i32, ptr, ptr, i64, i64, i64, i8, i64 }
%struct.archive_string = type { ptr, i64, i64 }
%struct.private_data = type { i32, %struct.bz_stream, i64, ptr, i64 }
%struct.bz_stream = type { ptr, i32, i32, i32, ptr, i32, i32, i32, ptr, ptr, ptr, ptr }
%struct.archive_write_filter = type { i64, ptr, ptr, ptr, ptr, ptr, ptr, ptr, ptr, ptr, ptr, i32, i32, i32, i32 }

@.str = private unnamed_addr constant [31 x i8] c"archive_write_add_filter_bzip2\00", align 1
@.str.1 = private unnamed_addr constant [14 x i8] c"Out of memory\00", align 1
@.str.2 = private unnamed_addr constant [6 x i8] c"bzip2\00", align 1

; Function Attrs: nounwind uwtable
define dso_local i32 @archive_write_add_filter_bzip2(ptr noundef %0) #0 {
  %2 = alloca i32, align 4
  %3 = alloca ptr, align 8
  %4 = alloca ptr, align 8
  %5 = alloca ptr, align 8
  %6 = alloca ptr, align 8
  %7 = alloca i32, align 4
  %8 = alloca i32, align 4
  store ptr %0, ptr %3, align 8, !tbaa !4
  call void @llvm.lifetime.start.p0(i64 8, ptr %4) #8
  %9 = load ptr, ptr %3, align 8, !tbaa !4
  store ptr %9, ptr %4, align 8, !tbaa !9
  call void @llvm.lifetime.start.p0(i64 8, ptr %5) #8
  %10 = load ptr, ptr %3, align 8, !tbaa !4
  %11 = call ptr @__archive_write_allocate_filter(ptr noundef %10)
  store ptr %11, ptr %5, align 8, !tbaa !11
  call void @llvm.lifetime.start.p0(i64 8, ptr %6) #8
  br label %12

12:                                               ; preds = %1
  call void @llvm.lifetime.start.p0(i64 4, ptr %7) #8
  %13 = load ptr, ptr %4, align 8, !tbaa !9
  %14 = getelementptr inbounds nuw %struct.archive_write, ptr %13, i32 0, i32 0
  %15 = call i32 @__archive_check_magic(ptr noundef %14, i32 noundef -1329217314, i32 noundef 1, ptr noundef @.str)
  store i32 %15, ptr %7, align 4, !tbaa !13
  %16 = load i32, ptr %7, align 4, !tbaa !13
  %17 = icmp eq i32 %16, -30
  br i1 %17, label %18, label %19

18:                                               ; preds = %12
  store i32 -30, ptr %2, align 4
  store i32 1, ptr %8, align 4
  br label %20

19:                                               ; preds = %12
  store i32 0, ptr %8, align 4
  br label %20

20:                                               ; preds = %19, %18
  call void @llvm.lifetime.end.p0(i64 4, ptr %7) #8
  %21 = load i32, ptr %8, align 4
  switch i32 %21, label %49 [
    i32 0, label %22
  ]

22:                                               ; preds = %20
  br label %23

23:                                               ; preds = %22
  br label %24

24:                                               ; preds = %23
  %25 = call noalias ptr @calloc(i64 noundef 1, i64 noundef 112) #9
  store ptr %25, ptr %6, align 8, !tbaa !15
  %26 = load ptr, ptr %6, align 8, !tbaa !15
  %27 = icmp eq ptr %26, null
  br i1 %27, label %28, label %31

28:                                               ; preds = %24
  %29 = load ptr, ptr %4, align 8, !tbaa !9
  %30 = getelementptr inbounds nuw %struct.archive_write, ptr %29, i32 0, i32 0
  call void (ptr, i32, ptr, ...) @archive_set_error(ptr noundef %30, i32 noundef 12, ptr noundef @.str.1)
  store i32 -30, ptr %2, align 4
  store i32 1, ptr %8, align 4
  br label %49

31:                                               ; preds = %24
  %32 = load ptr, ptr %6, align 8, !tbaa !15
  %33 = getelementptr inbounds nuw %struct.private_data, ptr %32, i32 0, i32 0
  store i32 9, ptr %33, align 8, !tbaa !17
  %34 = load ptr, ptr %6, align 8, !tbaa !15
  %35 = load ptr, ptr %5, align 8, !tbaa !11
  %36 = getelementptr inbounds nuw %struct.archive_write_filter, ptr %35, i32 0, i32 9
  store ptr %34, ptr %36, align 8, !tbaa !22
  %37 = load ptr, ptr %5, align 8, !tbaa !11
  %38 = getelementptr inbounds nuw %struct.archive_write_filter, ptr %37, i32 0, i32 3
  store ptr @archive_compressor_bzip2_options, ptr %38, align 8, !tbaa !24
  %39 = load ptr, ptr %5, align 8, !tbaa !11
  %40 = getelementptr inbounds nuw %struct.archive_write_filter, ptr %39, i32 0, i32 7
  store ptr @archive_compressor_bzip2_close, ptr %40, align 8, !tbaa !25
  %41 = load ptr, ptr %5, align 8, !tbaa !11
  %42 = getelementptr inbounds nuw %struct.archive_write_filter, ptr %41, i32 0, i32 8
  store ptr @archive_compressor_bzip2_free, ptr %42, align 8, !tbaa !26
  %43 = load ptr, ptr %5, align 8, !tbaa !11
  %44 = getelementptr inbounds nuw %struct.archive_write_filter, ptr %43, i32 0, i32 4
  store ptr @archive_compressor_bzip2_open, ptr %44, align 8, !tbaa !27
  %45 = load ptr, ptr %5, align 8, !tbaa !11
  %46 = getelementptr inbounds nuw %struct.archive_write_filter, ptr %45, i32 0, i32 11
  store i32 2, ptr %46, align 8, !tbaa !28
  %47 = load ptr, ptr %5, align 8, !tbaa !11
  %48 = getelementptr inbounds nuw %struct.archive_write_filter, ptr %47, i32 0, i32 10
  store ptr @.str.2, ptr %48, align 8, !tbaa !29
  store i32 0, ptr %2, align 4
  store i32 1, ptr %8, align 4
  br label %49

49:                                               ; preds = %31, %28, %20
  call void @llvm.lifetime.end.p0(i64 8, ptr %6) #8
  call void @llvm.lifetime.end.p0(i64 8, ptr %5) #8
  call void @llvm.lifetime.end.p0(i64 8, ptr %4) #8
  %50 = load i32, ptr %2, align 4
  ret i32 %50
}

; Function Attrs: nounwind uwtable
define dso_local i32 @archive_write_set_compression_bzip2(ptr noundef %0) #0 {
  %2 = alloca ptr, align 8
  store ptr %0, ptr %2, align 8, !tbaa !4
  %3 = load ptr, ptr %2, align 8, !tbaa !4
  call void @__archive_write_filters_free(ptr noundef %3)
  %4 = load ptr, ptr %2, align 8, !tbaa !4
  %5 = call i32 @archive_write_add_filter_bzip2(ptr noundef %4)
  ret i32 %5
}